; Function Attrs: mustprogress uwtable
define void @_ZN6casadi3Fmu11deserializeERNS_19DeserializingStreamE(ptr dead_on_unwind noalias writable sret(%"class.casadi::Fmu") align 8 %0, ptr noundef nonnull align 8 dereferenceable(41) %1) local_unnamed_addr #4 align 2 personality ptr @__gxx_personality_v0 {
  %3 = tail call noundef ptr @_ZN6casadi11FmuInternal11deserializeERNS_19DeserializingStreamE(ptr noundef nonnull align 8 dereferenceable(41) %1)
  tail call void @_ZN6casadi3FmuC1Ev(ptr noundef nonnull align 8 dereferenceable(8) %0)
  invoke void @_ZN6casadi13GenericSharedINS_12SharedObjectENS_20SharedObjectInternalEE3ownEPS2_(ptr noundef nonnull align 8 dereferenceable(8) %0, ptr noundef %3)
          to label %_ZN6casadi3Fmu6createEPNS_11FmuInternalE.exit unwind label %4

4:                                                ; preds = %2
  %5 = landingpad { ptr, i32 }
          cleanup
  invoke void @_ZN6casadi13GenericSharedINS_12SharedObjectENS_20SharedObjectInternalEE10count_downEv(ptr noundef nonnull align 8 dereferenceable(8) %0)
          to label %_ZN6casadi13GenericSharedINS_12SharedObjectENS_20SharedObjectInternalEED2Ev.exit.i unwind label %6

6:                                                ; preds = %4
  %7 = landingpad { ptr, i32 }
          catch ptr null
  %8 = extractvalue { ptr, i32 } %7, 0
  tail call void @__clang_call_terminate(ptr %8) #35
  unreachable

_ZN6casadi13GenericSharedINS_12SharedObjectENS_20SharedObjectInternalEED2Ev.exit.i: ; preds = %4
  resume { ptr, i32 } %5

_ZN6casadi3Fmu6createEPNS_11FmuInternalE.exit:    ; preds = %2
  ret void
}